
_interrupt:

;USB_To_RS232.c,28 :: 		void interrupt(){
;USB_To_RS232.c,30 :: 		USB_Interrupt_Proc();
	CALL        _USB_Interrupt_Proc+0, 0
;USB_To_RS232.c,32 :: 		}
L_end_interrupt:
L__interrupt27:
	RETFIE      1
; end of _interrupt

_main:

;USB_To_RS232.c,36 :: 		void main() {
;USB_To_RS232.c,38 :: 		ADCON1 |= 0x0F;
	MOVLW       15
	IORWF       ADCON1+0, 1 
;USB_To_RS232.c,40 :: 		CMCON  |= 7;
	MOVLW       7
	IORWF       CMCON+0, 1 
;USB_To_RS232.c,42 :: 		TRISA = 0x00;
	CLRF        TRISA+0 
;USB_To_RS232.c,43 :: 		TRISC = 0x00;
	CLRF        TRISC+0 
;USB_To_RS232.c,45 :: 		PORTC.F0 = 0;
	BCF         PORTC+0, 0 
;USB_To_RS232.c,46 :: 		PORTC.F1 = 0;
	BCF         PORTC+0, 1 
;USB_To_RS232.c,47 :: 		PORTC.F2 = 0;
	BCF         PORTC+0, 2 
;USB_To_RS232.c,49 :: 		Lcd_Init();   // LCD Etkinleþtirmesi
	CALL        _Lcd_Init+0, 0
;USB_To_RS232.c,51 :: 		Delay_ms(10);
	MOVLW       13
	MOVWF       R12, 0
	MOVLW       251
	MOVWF       R13, 0
L_main0:
	DECFSZ      R13, 1, 1
	BRA         L_main0
	DECFSZ      R12, 1, 1
	BRA         L_main0
	NOP
	NOP
;USB_To_RS232.c,53 :: 		Lcd_Out(1,1,"Gulmay Gen. Test");
	MOVLW       1
	MOVWF       FARG_Lcd_Out_row+0 
	MOVLW       1
	MOVWF       FARG_Lcd_Out_column+0 
	MOVLW       ?lstr1_USB_To_RS232+0
	MOVWF       FARG_Lcd_Out_text+0 
	MOVLW       hi_addr(?lstr1_USB_To_RS232+0)
	MOVWF       FARG_Lcd_Out_text+1 
	CALL        _Lcd_Out+0, 0
;USB_To_RS232.c,55 :: 		Delay_ms(1000);
	MOVLW       6
	MOVWF       R11, 0
	MOVLW       19
	MOVWF       R12, 0
	MOVLW       173
	MOVWF       R13, 0
L_main1:
	DECFSZ      R13, 1, 1
	BRA         L_main1
	DECFSZ      R12, 1, 1
	BRA         L_main1
	DECFSZ      R11, 1, 1
	BRA         L_main1
	NOP
	NOP
;USB_To_RS232.c,57 :: 		Lcd_Cmd(_LCD_CLEAR);
	MOVLW       1
	MOVWF       FARG_Lcd_Cmd_out_char+0 
	CALL        _Lcd_Cmd+0, 0
;USB_To_RS232.c,59 :: 		UART1_Init(9600);  // UART1 Portu Etkinleþtirmesi
	BSF         BAUDCON+0, 3, 0
	CLRF        SPBRGH+0 
	MOVLW       103
	MOVWF       SPBRG+0 
	BSF         TXSTA+0, 2, 0
	CALL        _UART1_Init+0, 0
;USB_To_RS232.c,61 :: 		Delay_ms(10);
	MOVLW       13
	MOVWF       R12, 0
	MOVLW       251
	MOVWF       R13, 0
L_main2:
	DECFSZ      R13, 1, 1
	BRA         L_main2
	DECFSZ      R12, 1, 1
	BRA         L_main2
	NOP
	NOP
;USB_To_RS232.c,71 :: 		HID_Enable(&readbuff,&writebuff);  // USB Etkinleþtirmesi
	MOVLW       _readbuff+0
	MOVWF       FARG_HID_Enable_readbuff+0 
	MOVLW       hi_addr(_readbuff+0)
	MOVWF       FARG_HID_Enable_readbuff+1 
	MOVLW       _writebuff+0
	MOVWF       FARG_HID_Enable_writebuff+0 
	MOVLW       hi_addr(_writebuff+0)
	MOVWF       FARG_HID_Enable_writebuff+1 
	CALL        _HID_Enable+0, 0
;USB_To_RS232.c,73 :: 		while(1){
L_main3:
;USB_To_RS232.c,75 :: 		while(!HID_Read());
L_main5:
	CALL        _HID_Read+0, 0
	MOVF        R0, 1 
	BTFSS       STATUS+0, 2 
	GOTO        L_main6
	GOTO        L_main5
L_main6:
;USB_To_RS232.c,77 :: 		for(cnt=0;cnt<64;cnt++)
	CLRF        _cnt+0 
L_main7:
	MOVLW       64
	SUBWF       _cnt+0, 0 
	BTFSC       STATUS+0, 0 
	GOTO        L_main8
;USB_To_RS232.c,79 :: 		writebuff[cnt]=readbuff[cnt];
	MOVLW       _writebuff+0
	MOVWF       FSR1 
	MOVLW       hi_addr(_writebuff+0)
	MOVWF       FSR1H 
	MOVF        _cnt+0, 0 
	ADDWF       FSR1, 1 
	BTFSC       STATUS+0, 0 
	INCF        FSR1H, 1 
	MOVLW       _readbuff+0
	MOVWF       FSR0 
	MOVLW       hi_addr(_readbuff+0)
	MOVWF       FSR0H 
	MOVF        _cnt+0, 0 
	ADDWF       FSR0, 1 
	BTFSC       STATUS+0, 0 
	INCF        FSR0H, 1 
	MOVF        POSTINC0+0, 0 
	MOVWF       POSTINC1+0 
;USB_To_RS232.c,77 :: 		for(cnt=0;cnt<64;cnt++)
	INCF        _cnt+0, 1 
;USB_To_RS232.c,79 :: 		writebuff[cnt]=readbuff[cnt];
	GOTO        L_main7
L_main8:
;USB_To_RS232.c,81 :: 		while(!HID_Write(&writebuff,64));
L_main10:
	MOVLW       _writebuff+0
	MOVWF       FARG_HID_Write_writebuff+0 
	MOVLW       hi_addr(_writebuff+0)
	MOVWF       FARG_HID_Write_writebuff+1 
	MOVLW       64
	MOVWF       FARG_HID_Write_len+0 
	CALL        _HID_Write+0, 0
	MOVF        R0, 1 
	BTFSS       STATUS+0, 2 
	GOTO        L_main11
	GOTO        L_main10
L_main11:
;USB_To_RS232.c,83 :: 		Lcd_Cmd(_LCD_CLEAR);
	MOVLW       1
	MOVWF       FARG_Lcd_Cmd_out_char+0 
	CALL        _Lcd_Cmd+0, 0
;USB_To_RS232.c,85 :: 		UART1_Write_Text(&writebuff);
	MOVLW       _writebuff+0
	MOVWF       FARG_UART1_Write_Text_uart_text+0 
	MOVLW       hi_addr(_writebuff+0)
	MOVWF       FARG_UART1_Write_Text_uart_text+1 
	CALL        _UART1_Write_Text+0, 0
;USB_To_RS232.c,87 :: 		UART1_Write(13);
	MOVLW       13
	MOVWF       FARG_UART1_Write_data_+0 
	CALL        _UART1_Write+0, 0
;USB_To_RS232.c,89 :: 		Lcd_Out(row,col,writebuff);
	MOVF        _row+0, 0 
	MOVWF       FARG_Lcd_Out_row+0 
	MOVF        _col+0, 0 
	MOVWF       FARG_Lcd_Out_column+0 
	MOVLW       _writebuff+0
	MOVWF       FARG_Lcd_Out_text+0 
	MOVLW       hi_addr(_writebuff+0)
	MOVWF       FARG_Lcd_Out_text+1 
	CALL        _Lcd_Out+0, 0
;USB_To_RS232.c,91 :: 		Delay_Ms(1000);
	MOVLW       6
	MOVWF       R11, 0
	MOVLW       19
	MOVWF       R12, 0
	MOVLW       173
	MOVWF       R13, 0
L_main12:
	DECFSZ      R13, 1, 1
	BRA         L_main12
	DECFSZ      R12, 1, 1
	BRA         L_main12
	DECFSZ      R11, 1, 1
	BRA         L_main12
	NOP
	NOP
;USB_To_RS232.c,93 :: 		Lcd_Cmd(_LCD_CLEAR);
	MOVLW       1
	MOVWF       FARG_Lcd_Cmd_out_char+0 
	CALL        _Lcd_Cmd+0, 0
;USB_To_RS232.c,99 :: 		if(UART1_Data_Ready()){
	CALL        _UART1_Data_Ready+0, 0
	MOVF        R0, 1 
	BTFSC       STATUS+0, 2 
	GOTO        L_main13
;USB_To_RS232.c,101 :: 		Delay_ms(10);
	MOVLW       13
	MOVWF       R12, 0
	MOVLW       251
	MOVWF       R13, 0
L_main14:
	DECFSZ      R13, 1, 1
	BRA         L_main14
	DECFSZ      R12, 1, 1
	BRA         L_main14
	NOP
	NOP
;USB_To_RS232.c,103 :: 		uart_rd =  UART1_Read();
	CALL        _UART1_Read+0, 0
	MOVF        R0, 0 
	MOVWF       _uart_rd+0 
;USB_To_RS232.c,105 :: 		Delay_ms(10);
	MOVLW       13
	MOVWF       R12, 0
	MOVLW       251
	MOVWF       R13, 0
L_main15:
	DECFSZ      R13, 1, 1
	BRA         L_main15
	DECFSZ      R12, 1, 1
	BRA         L_main15
	NOP
	NOP
;USB_To_RS232.c,107 :: 		Lcd_Chr(row,col,uart_rd);
	MOVF        _row+0, 0 
	MOVWF       FARG_Lcd_Chr_row+0 
	MOVF        _col+0, 0 
	MOVWF       FARG_Lcd_Chr_column+0 
	MOVF        _uart_rd+0, 0 
	MOVWF       FARG_Lcd_Chr_out_char+0 
	CALL        _Lcd_Chr+0, 0
;USB_To_RS232.c,111 :: 		if(uart_rd==17){
	MOVF        _uart_rd+0, 0 
	XORLW       17
	BTFSS       STATUS+0, 2 
	GOTO        L_main16
;USB_To_RS232.c,113 :: 		Lcd_Cmd(_LCD_CLEAR);
	MOVLW       1
	MOVWF       FARG_Lcd_Cmd_out_char+0 
	CALL        _Lcd_Cmd+0, 0
;USB_To_RS232.c,115 :: 		col=1,row=1;
	MOVLW       1
	MOVWF       _col+0 
	MOVLW       0
	MOVWF       _col+1 
	MOVLW       1
	MOVWF       _row+0 
	MOVLW       0
	MOVWF       _row+1 
;USB_To_RS232.c,117 :: 		}
L_main16:
;USB_To_RS232.c,119 :: 		col=col+1;
	INFSNZ      _col+0, 1 
	INCF        _col+1, 1 
;USB_To_RS232.c,121 :: 		}
L_main13:
;USB_To_RS232.c,124 :: 		if(col==17 && row==1){
	MOVLW       0
	XORWF       _col+1, 0 
	BTFSS       STATUS+0, 2 
	GOTO        L__main29
	MOVLW       17
	XORWF       _col+0, 0 
L__main29:
	BTFSS       STATUS+0, 2 
	GOTO        L_main19
	MOVLW       0
	XORWF       _row+1, 0 
	BTFSS       STATUS+0, 2 
	GOTO        L__main30
	MOVLW       1
	XORWF       _row+0, 0 
L__main30:
	BTFSS       STATUS+0, 2 
	GOTO        L_main19
L__main25:
;USB_To_RS232.c,126 :: 		row=2;
	MOVLW       2
	MOVWF       _row+0 
	MOVLW       0
	MOVWF       _row+1 
;USB_To_RS232.c,128 :: 		col=1;
	MOVLW       1
	MOVWF       _col+0 
	MOVLW       0
	MOVWF       _col+1 
;USB_To_RS232.c,130 :: 		}
L_main19:
;USB_To_RS232.c,133 :: 		if(row==2 && col==17){
	MOVLW       0
	XORWF       _row+1, 0 
	BTFSS       STATUS+0, 2 
	GOTO        L__main31
	MOVLW       2
	XORWF       _row+0, 0 
L__main31:
	BTFSS       STATUS+0, 2 
	GOTO        L_main22
	MOVLW       0
	XORWF       _col+1, 0 
	BTFSS       STATUS+0, 2 
	GOTO        L__main32
	MOVLW       17
	XORWF       _col+0, 0 
L__main32:
	BTFSS       STATUS+0, 2 
	GOTO        L_main22
L__main24:
;USB_To_RS232.c,135 :: 		Lcd_Cmd(_LCD_CLEAR);
	MOVLW       1
	MOVWF       FARG_Lcd_Cmd_out_char+0 
	CALL        _Lcd_Cmd+0, 0
;USB_To_RS232.c,137 :: 		col=1;
	MOVLW       1
	MOVWF       _col+0 
	MOVLW       0
	MOVWF       _col+1 
;USB_To_RS232.c,139 :: 		row=1;
	MOVLW       1
	MOVWF       _row+0 
	MOVLW       0
	MOVWF       _row+1 
;USB_To_RS232.c,141 :: 		Delay_Ms(1000);
	MOVLW       6
	MOVWF       R11, 0
	MOVLW       19
	MOVWF       R12, 0
	MOVLW       173
	MOVWF       R13, 0
L_main23:
	DECFSZ      R13, 1, 1
	BRA         L_main23
	DECFSZ      R12, 1, 1
	BRA         L_main23
	DECFSZ      R11, 1, 1
	BRA         L_main23
	NOP
	NOP
;USB_To_RS232.c,143 :: 		Lcd_Cmd(_LCD_CLEAR);
	MOVLW       1
	MOVWF       FARG_Lcd_Cmd_out_char+0 
	CALL        _Lcd_Cmd+0, 0
;USB_To_RS232.c,149 :: 		}
L_main22:
;USB_To_RS232.c,151 :: 		}
	GOTO        L_main3
;USB_To_RS232.c,155 :: 		}
L_end_main:
	GOTO        $+0
; end of _main
